; Function Attrs: mustprogress uwtable
define void @_ZN6casadi10MXFunction13change_optionERKNSt7__cxx1112basic_stringIcSt11char_traitsIcESaIcEEERKNS_11GenericTypeE(ptr noundef nonnull align 8 dereferenceable(1450) %0, ptr noundef nonnull align 8 dereferenceable(32) %1, ptr noundef nonnull align 8 dereferenceable(8) %2) unnamed_addr #3 align 2 {
  %4 = tail call noundef i32 @_ZNKSt7__cxx1112basic_stringIcSt11char_traitsIcESaIcEE7compareEPKc(ptr noundef nonnull align 8 dereferenceable(32) %1, ptr noundef nonnull @.str.5) #23
  %5 = icmp eq i32 %4, 0
  br i1 %5, label %6, label %10

6:                                                ; preds = %3
  %7 = tail call noundef zeroext i1 @_ZNK6casadi11GenericType7to_boolEv(ptr noundef nonnull align 8 dereferenceable(8) %2)
  %8 = getelementptr inbounds i8, ptr %0, i64 1449
  %9 = zext i1 %7 to i8
  store i8 %9, ptr %8, align 1
  br label %11

10:                                               ; preds = %3
  tail call void @_ZN6casadi16FunctionInternal13change_optionERKNSt7__cxx1112basic_stringIcSt11char_traitsIcESaIcEEERKNS_11GenericTypeE(ptr noundef nonnull align 8 dereferenceable(1304) %0, ptr noundef nonnull align 8 dereferenceable(32) %1, ptr noundef nonnull align 8 dereferenceable(8) %2)
  br label %11

11:                                               ; preds = %10, %6
  ret void
}